target datalayout = "e-m:e-p270:32:32-p271:32:32-p272:64:64-i64:64-i128:128-f80:128-n8:16:32:64-S128"
target triple = "x86_64-pc-linux-gnu"

%class.QString = type { %struct.QArrayDataPointer }
%struct.QArrayDataPointer = type { ptr, ptr, i64 }
%class.MainStatusBar = type { %class.QStatusBar, ptr, ptr, %class.LabelStack, %class.ProgressFrame, %class.LabelStack, %class.ClickableLabel, ptr, %class.QString, i8, i32 }
%class.QStatusBar = type { %class.QWidget }
%class.QWidget = type { %class.QObject, %class.QPaintDevice.base, ptr }
%class.QObject = type { ptr, %class.QScopedPointer }
%class.QScopedPointer = type { ptr }
%class.QPaintDevice.base = type <{ ptr, i16 }>
%class.ProgressFrame = type { %class.QFrame, ptr, %struct.progdlg, %class.QString, %class.QString, i8, ptr, i32, ptr, ptr }
%class.QFrame = type { %class.QWidget }
%struct.progdlg = type { ptr, ptr }
%class.LabelStack = type { %class.QLabel, i32, %class.QList.5, i8, %class.QElapsedTimer, %class.QTimer }
%class.QLabel = type { %class.QFrame }
%class.QList.5 = type { %struct.QArrayDataPointer.8 }
%struct.QArrayDataPointer.8 = type { ptr, ptr, i64 }
%class.QElapsedTimer = type { i64, i64 }
%class.QTimer = type { %class.QObject }
%class.ClickableLabel = type { %class.QLabel }
%class.QEvent = type { ptr, i16, i8, i8, i8, i8, i16 }

; Function Attrs: mustprogress nounwind uwtable
define linkonce_odr noundef i32 @_ZNK6QEvent4typeEv(ptr noundef nonnull align 8 dereferenceable(16) %0) #1 comdat align 2 {
  %2 = alloca ptr, align 8
  store ptr %0, ptr %2, align 8
  %3 = load ptr, ptr %2, align 8
  %4 = getelementptr inbounds %class.QEvent, ptr %3, i32 0, i32 1
  %5 = load i16, ptr %4, align 8
  %6 = zext i16 %5 to i32
  ret i32 %6
}

; Function Attrs: mustprogress uwtable
define void @_ZN13MainStatusBar11changeEventEP6QEvent(ptr noundef nonnull align 8 dereferenceable(512) %0, ptr noundef %1) unnamed_addr #0 align 2 {
  %3 = alloca ptr, align 8
  %4 = alloca ptr, align 8
  store ptr %0, ptr %3, align 8
  store ptr %1, ptr %4, align 8
  %5 = load ptr, ptr %3, align 8
  %6 = load ptr, ptr %4, align 8
  %7 = call noundef i32 @_ZNK6QEvent4typeEv(ptr noundef nonnull align 8 dereferenceable(16) %6)
  %8 = icmp eq i32 %7, 89
  br i1 %8, label %9, label %13

9:                                                ; preds = %2
  %10 = getelementptr inbounds %class.MainStatusBar, ptr %5, i32 0, i32 3
  call void @_ZN10LabelStack7popTextEi(ptr noundef nonnull align 8 dereferenceable(112) %10, i32 noundef 0)
  %11 = getelementptr inbounds %class.MainStatusBar, ptr %5, i32 0, i32 3
  %12 = getelementptr inbounds %class.MainStatusBar, ptr %5, i32 0, i32 8
  call void @_ZN10LabelStack8pushTextERK7QStringi(ptr noundef nonnull align 8 dereferenceable(112) %11, ptr noundef nonnull align 8 dereferenceable(24) %12, i32 noundef 0)
  call void @_ZN13MainStatusBar26setStatusbarForCaptureFileEv(ptr noundef nonnull align 8 dereferenceable(512) %5)
  call void @_ZN13MainStatusBar21showCaptureStatisticsEv(ptr noundef nonnull align 8 dereferenceable(512) %5)
  call void @_ZN13MainStatusBar14setProfileNameEv(ptr noundef nonnull align 8 dereferenceable(512) %5)
  br label %13

13:                                               ; preds = %9, %2
  %14 = load ptr, ptr %4, align 8
  call void @_ZN7QWidget11changeEventEP6QEvent(ptr noundef nonnull align 8 dereferenceable(40) %5, ptr noundef %14)
  ret void
}