; Function Attrs: mustprogress uwtable
define void @_ZN13MainStatusBar11changeEventEP6QEvent(ptr noundef nonnull align 8 dereferenceable(512) %0, ptr noundef %1) unnamed_addr #0 align 2 {
  %3 = getelementptr inbounds i8, ptr %1, i64 8
  %4 = load i16, ptr %3, align 8
  %5 = icmp eq i16 %4, 89
  br i1 %5, label %6, label %9

6:                                                ; preds = %2
  %7 = getelementptr inbounds i8, ptr %0, i64 56
  tail call void @_ZN10LabelStack7popTextEi(ptr noundef nonnull align 8 dereferenceable(112) %7, i32 noundef 0)
  %8 = getelementptr inbounds i8, ptr %0, i64 480
  tail call void @_ZN10LabelStack8pushTextERK7QStringi(ptr noundef nonnull align 8 dereferenceable(112) %7, ptr noundef nonnull align 8 dereferenceable(24) %8, i32 noundef 0)
  tail call void @_ZN13MainStatusBar26setStatusbarForCaptureFileEv(ptr noundef nonnull align 8 dereferenceable(512) %0)
  tail call void @_ZN13MainStatusBar21showCaptureStatisticsEv(ptr noundef nonnull align 8 dereferenceable(512) %0)
  tail call void @_ZN13MainStatusBar14setProfileNameEv(ptr noundef nonnull align 8 dereferenceable(512) %0)
  br label %9

9:                                                ; preds = %6, %2
  tail call void @_ZN7QWidget11changeEventEP6QEvent(ptr noundef nonnull align 8 dereferenceable(40) %0, ptr noundef nonnull %1)
  ret void
}